; ModuleID = '55/1550.c'
source_filename = "55/1550.c"
target datalayout = "e-m:e-p270:32:32-p271:32:32-p272:64:64-i64:64-f80:128-n8:16:32:64-S128"
target triple = "x86_64-pc-linux-gnu"

@.str = private unnamed_addr constant [9 x i8] c"%d %s %d\00", align 1
@.str.1 = private unnamed_addr constant [3 x i8] c"%c\00", align 1
@.str.2 = private unnamed_addr constant [2 x i8] c"0\00", align 1

; Function Attrs: noinline nounwind uwtable
define dso_local i32 @main() #0 {
  %1 = alloca i32, align 4
  %2 = alloca i32, align 4
  %3 = alloca i32, align 4
  %4 = alloca i32, align 4
  %5 = alloca i32, align 4
  %6 = alloca i32, align 4
  %7 = alloca [2000 x i32], align 16
  %8 = alloca i32, align 4
  %9 = alloca i32, align 4
  %10 = alloca i32, align 4
  %11 = alloca i32, align 4
  %12 = alloca [1000 x i8], align 16
  %13 = alloca [1000 x i8], align 16
  %14 = alloca [2000 x i8], align 16
  store i32 0, i32* %1, align 4
  store i32 0, i32* %8, align 4
  %15 = getelementptr inbounds [1000 x i8], [1000 x i8]* %12, i64 0, i64 0
  %16 = call i32 (i8*, ...) @__isoc99_scanf(i8* getelementptr inbounds ([9 x i8], [9 x i8]* @.str, i64 0, i64 0), i32* %2, i8* %15, i32* %3)
  store i32 0, i32* %4, align 4
  br label %17

17:                                               ; preds = %62, %0
  %18 = load i32, i32* %4, align 4
  %19 = sext i32 %18 to i64
  %20 = getelementptr inbounds [1000 x i8], [1000 x i8]* %12, i64 0, i64 %19
  %21 = load i8, i8* %20, align 1
  %22 = sext i8 %21 to i32
  %23 = icmp eq i32 %22, 0
  br i1 %23, label %24, label %28

24:                                               ; preds = %17
  %25 = load i32, i32* %4, align 4
  %26 = sext i32 %25 to i64
  %27 = getelementptr inbounds [1000 x i8], [1000 x i8]* %13, i64 0, i64 %26
  store i8 0, i8* %27, align 1
  br label %65

28:                                               ; preds = %17
  %29 = load i32, i32* %4, align 4
  %30 = sext i32 %29 to i64
  %31 = getelementptr inbounds [1000 x i8], [1000 x i8]* %12, i64 0, i64 %30
  %32 = load i8, i8* %31, align 1
  %33 = sext i8 %32 to i32
  %34 = icmp sge i32 %33, 97
  br i1 %34, label %35, label %54

35:                                               ; preds = %28
  %36 = load i32, i32* %4, align 4
  %37 = sext i32 %36 to i64
  %38 = getelementptr inbounds [1000 x i8], [1000 x i8]* %12, i64 0, i64 %37
  %39 = load i8, i8* %38, align 1
  %40 = sext i8 %39 to i32
  %41 = icmp sle i32 %40, 122
  br i1 %41, label %42, label %54

42:                                               ; preds = %35
  %43 = load i32, i32* %4, align 4
  %44 = sext i32 %43 to i64
  %45 = getelementptr inbounds [1000 x i8], [1000 x i8]* %12, i64 0, i64 %44
  %46 = load i8, i8* %45, align 1
  %47 = sext i8 %46 to i32
  %48 = sub nsw i32 %47, 97
  %49 = add nsw i32 %48, 65
  %50 = trunc i32 %49 to i8
  %51 = load i32, i32* %4, align 4
  %52 = sext i32 %51 to i64
  %53 = getelementptr inbounds [1000 x i8], [1000 x i8]* %12, i64 0, i64 %52
  store i8 %50, i8* %53, align 1
  br label %54

54:                                               ; preds = %42, %35, %28
  %55 = load i32, i32* %4, align 4
  %56 = sext i32 %55 to i64
  %57 = getelementptr inbounds [1000 x i8], [1000 x i8]* %12, i64 0, i64 %56
  %58 = load i8, i8* %57, align 1
  %59 = load i32, i32* %4, align 4
  %60 = sext i32 %59 to i64
  %61 = getelementptr inbounds [1000 x i8], [1000 x i8]* %13, i64 0, i64 %60
  store i8 %58, i8* %61, align 1
  br label %62

62:                                               ; preds = %54
  %63 = load i32, i32* %4, align 4
  %64 = add nsw i32 %63, 1
  store i32 %64, i32* %4, align 4
  br label %17

65:                                               ; preds = %24
  store i32 0, i32* %5, align 4
  br label %66

66:                                               ; preds = %106, %65
  %67 = load i32, i32* %5, align 4
  %68 = load i32, i32* %4, align 4
  %69 = sub nsw i32 %68, 1
  %70 = icmp sle i32 %67, %69
  br i1 %70, label %71, label %109

71:                                               ; preds = %66
  %72 = load i32, i32* %5, align 4
  %73 = sext i32 %72 to i64
  %74 = getelementptr inbounds [1000 x i8], [1000 x i8]* %13, i64 0, i64 %73
  %75 = load i8, i8* %74, align 1
  %76 = sext i8 %75 to i32
  %77 = icmp sge i32 %76, 65
  br i1 %77, label %78, label %95

78:                                               ; preds = %71
  %79 = load i32, i32* %5, align 4
  %80 = sext i32 %79 to i64
  %81 = getelementptr inbounds [1000 x i8], [1000 x i8]* %13, i64 0, i64 %80
  %82 = load i8, i8* %81, align 1
  %83 = sext i8 %82 to i32
  %84 = icmp sle i32 %83, 90
  br i1 %84, label %85, label %95

85:                                               ; preds = %78
  %86 = load i32, i32* %5, align 4
  %87 = sext i32 %86 to i64
  %88 = getelementptr inbounds [1000 x i8], [1000 x i8]* %13, i64 0, i64 %87
  %89 = load i8, i8* %88, align 1
  %90 = sext i8 %89 to i32
  %91 = sub nsw i32 %90, 55
  %92 = load i32, i32* %5, align 4
  %93 = sext i32 %92 to i64
  %94 = getelementptr inbounds [2000 x i32], [2000 x i32]* %7, i64 0, i64 %93
  store i32 %91, i32* %94, align 4
  br label %105

95:                                               ; preds = %78, %71
  %96 = load i32, i32* %5, align 4
  %97 = sext i32 %96 to i64
  %98 = getelementptr inbounds [1000 x i8], [1000 x i8]* %13, i64 0, i64 %97
  %99 = load i8, i8* %98, align 1
  %100 = sext i8 %99 to i32
  %101 = sub nsw i32 %100, 48
  %102 = load i32, i32* %5, align 4
  %103 = sext i32 %102 to i64
  %104 = getelementptr inbounds [2000 x i32], [2000 x i32]* %7, i64 0, i64 %103
  store i32 %101, i32* %104, align 4
  br label %105

105:                                              ; preds = %95, %85
  br label %106

106:                                              ; preds = %105
  %107 = load i32, i32* %5, align 4
  %108 = add nsw i32 %107, 1
  store i32 %108, i32* %5, align 4
  br label %66

109:                                              ; preds = %66
  %110 = load i32, i32* %4, align 4
  %111 = sub nsw i32 %110, 1
  store i32 %111, i32* %6, align 4
  br label %112

112:                                              ; preds = %157, %109
  %113 = load i32, i32* %6, align 4
  %114 = icmp sge i32 %113, 0
  br i1 %114, label %115, label %160

115:                                              ; preds = %112
  %116 = load i32, i32* %4, align 4
  %117 = sub nsw i32 %116, 1
  %118 = load i32, i32* %6, align 4
  %119 = sub nsw i32 %117, %118
  store i32 %119, i32* %9, align 4
  %120 = load i32, i32* %9, align 4
  %121 = icmp ne i32 %120, 0
  br i1 %121, label %122, label %139

122:                                              ; preds = %115
  br label %123

123:                                              ; preds = %135, %122
  %124 = load i32, i32* %6, align 4
  %125 = sext i32 %124 to i64
  %126 = getelementptr inbounds [2000 x i32], [2000 x i32]* %7, i64 0, i64 %125
  %127 = load i32, i32* %126, align 4
  %128 = load i32, i32* %2, align 4
  %129 = mul nsw i32 %127, %128
  %130 = load i32, i32* %6, align 4
  %131 = sext i32 %130 to i64
  %132 = getelementptr inbounds [2000 x i32], [2000 x i32]* %7, i64 0, i64 %131
  store i32 %129, i32* %132, align 4
  %133 = load i32, i32* %9, align 4
  %134 = add nsw i32 %133, -1
  store i32 %134, i32* %9, align 4
  br label %135

135:                                              ; preds = %123
  %136 = load i32, i32* %9, align 4
  %137 = icmp sgt i32 %136, 0
  br i1 %137, label %123, label %138

138:                                              ; preds = %135
  br label %139

139:                                              ; preds = %138, %115
  %140 = load i32, i32* %9, align 4
  %141 = icmp eq i32 %140, 0
  br i1 %141, label %142, label %150

142:                                              ; preds = %139
  %143 = load i32, i32* %6, align 4
  %144 = sext i32 %143 to i64
  %145 = getelementptr inbounds [2000 x i32], [2000 x i32]* %7, i64 0, i64 %144
  %146 = load i32, i32* %145, align 4
  %147 = load i32, i32* %6, align 4
  %148 = sext i32 %147 to i64
  %149 = getelementptr inbounds [2000 x i32], [2000 x i32]* %7, i64 0, i64 %148
  store i32 %146, i32* %149, align 4
  br label %150

150:                                              ; preds = %142, %139
  %151 = load i32, i32* %8, align 4
  %152 = load i32, i32* %6, align 4
  %153 = sext i32 %152 to i64
  %154 = getelementptr inbounds [2000 x i32], [2000 x i32]* %7, i64 0, i64 %153
  %155 = load i32, i32* %154, align 4
  %156 = add nsw i32 %151, %155
  store i32 %156, i32* %8, align 4
  br label %157

157:                                              ; preds = %150
  %158 = load i32, i32* %6, align 4
  %159 = add nsw i32 %158, -1
  store i32 %159, i32* %6, align 4
  br label %112

160:                                              ; preds = %112
  %161 = load i32, i32* %8, align 4
  %162 = icmp ne i32 %161, 0
  br i1 %162, label %163, label %214

163:                                              ; preds = %160
  store i32 0, i32* %10, align 4
  br label %164

164:                                              ; preds = %194, %163
  %165 = load i32, i32* %8, align 4
  %166 = icmp ne i32 %165, 0
  br i1 %166, label %167, label %197

167:                                              ; preds = %164
  %168 = load i32, i32* %8, align 4
  %169 = load i32, i32* %3, align 4
  %170 = srem i32 %168, %169
  %171 = icmp sle i32 %170, 9
  br i1 %171, label %172, label %181

172:                                              ; preds = %167
  %173 = load i32, i32* %8, align 4
  %174 = load i32, i32* %3, align 4
  %175 = srem i32 %173, %174
  %176 = add nsw i32 %175, 48
  %177 = trunc i32 %176 to i8
  %178 = load i32, i32* %10, align 4
  %179 = sext i32 %178 to i64
  %180 = getelementptr inbounds [2000 x i8], [2000 x i8]* %14, i64 0, i64 %179
  store i8 %177, i8* %180, align 1
  br label %190

181:                                              ; preds = %167
  %182 = load i32, i32* %8, align 4
  %183 = load i32, i32* %3, align 4
  %184 = srem i32 %182, %183
  %185 = add nsw i32 %184, 55
  %186 = trunc i32 %185 to i8
  %187 = load i32, i32* %10, align 4
  %188 = sext i32 %187 to i64
  %189 = getelementptr inbounds [2000 x i8], [2000 x i8]* %14, i64 0, i64 %188
  store i8 %186, i8* %189, align 1
  br label %190

190:                                              ; preds = %181, %172
  %191 = load i32, i32* %8, align 4
  %192 = load i32, i32* %3, align 4
  %193 = sdiv i32 %191, %192
  store i32 %193, i32* %8, align 4
  br label %194

194:                                              ; preds = %190
  %195 = load i32, i32* %10, align 4
  %196 = add nsw i32 %195, 1
  store i32 %196, i32* %10, align 4
  br label %164

197:                                              ; preds = %164
  %198 = load i32, i32* %10, align 4
  %199 = sub nsw i32 %198, 1
  store i32 %199, i32* %11, align 4
  br label %200

200:                                              ; preds = %210, %197
  %201 = load i32, i32* %11, align 4
  %202 = icmp sge i32 %201, 0
  br i1 %202, label %203, label %213

203:                                              ; preds = %200
  %204 = load i32, i32* %11, align 4
  %205 = sext i32 %204 to i64
  %206 = getelementptr inbounds [2000 x i8], [2000 x i8]* %14, i64 0, i64 %205
  %207 = load i8, i8* %206, align 1
  %208 = sext i8 %207 to i32
  %209 = call i32 (i8*, ...) @printf(i8* getelementptr inbounds ([3 x i8], [3 x i8]* @.str.1, i64 0, i64 0), i32 %208)
  br label %210

210:                                              ; preds = %203
  %211 = load i32, i32* %11, align 4
  %212 = add nsw i32 %211, -1
  store i32 %212, i32* %11, align 4
  br label %200

213:                                              ; preds = %200
  br label %216

214:                                              ; preds = %160
  %215 = call i32 (i8*, ...) @printf(i8* getelementptr inbounds ([2 x i8], [2 x i8]* @.str.2, i64 0, i64 0))
  br label %216

216:                                              ; preds = %214, %213
  %217 = load i32, i32* %1, align 4
  ret i32 %217
}

declare dso_local i32 @__isoc99_scanf(i8*, ...) #1

declare dso_local i32 @printf(i8*, ...) #1


!llvm.module.flags = !{!0}
!llvm.ident = !{!1}

!0 = !{i32 1, !"wchar_size", i32 4}
!1 = !{!"clang version 10.0.0-4ubuntu1 "}
